; Function Attrs: mustprogress nofree nounwind willreturn memory(write, argmem: readwrite) uwtable
define dso_local noundef zeroext i1 @_ZN30btGeneric6DofSpring2Constraint16matrixToEulerYZXERK11btMatrix3x3R9btVector3(ptr nocapture noundef nonnull readonly align 4 dereferenceable(48) %mat, ptr nocapture noundef nonnull writeonly align 4 dereferenceable(16) %xyz) local_unnamed_addr #6 align 2 {
entry:
  %arrayidx.i = getelementptr inbounds i8, ptr %mat, i64 4
  %0 = load float, ptr %arrayidx.i, align 4
  %cmp = fcmp olt float %0, 1.000000e+00
  br i1 %cmp, label %if.then, label %if.else27

if.then:                                          ; preds = %entry
  %cmp1 = fcmp ogt float %0, -1.000000e+00
  br i1 %cmp1, label %if.then2, label %if.else

if.then2:                                         ; preds = %if.then
  %arrayidx.i19 = getelementptr inbounds i8, ptr %mat, i64 36
  %1 = load float, ptr %arrayidx.i19, align 4
  %fneg = fneg float %1
  %arrayidx.i21 = getelementptr inbounds i8, ptr %mat, i64 20
  %2 = load float, ptr %arrayidx.i21, align 4
  %call.i = tail call noundef float @atan2f(float noundef %fneg, float noundef %2) #22
  store float %call.i, ptr %xyz, align 4
  %arrayidx.i22 = getelementptr inbounds i8, ptr %mat, i64 8
  %3 = load float, ptr %arrayidx.i22, align 4
  %fneg8 = fneg float %3
  %4 = load float, ptr %mat, align 4
  %call.i23 = tail call noundef float @atan2f(float noundef %fneg8, float noundef %4) #22
  %arrayidx12 = getelementptr inbounds i8, ptr %xyz, i64 4
  store float %call.i23, ptr %arrayidx12, align 4
  %5 = load float, ptr %arrayidx.i, align 4
  %cmp.i = fcmp olt float %5, -1.000000e+00
  %x.addr.0.i = select i1 %cmp.i, float -1.000000e+00, float %5
  %cmp1.i = fcmp ogt float %x.addr.0.i, 1.000000e+00
  %x.addr.1.i = select i1 %cmp1.i, float 1.000000e+00, float %x.addr.0.i
  %call.i25 = tail call noundef float @asinf(float noundef %x.addr.1.i) #22
  br label %return

if.else:                                          ; preds = %if.then
  store float 0.000000e+00, ptr %xyz, align 4
  %arrayidx.i27 = getelementptr inbounds i8, ptr %mat, i64 24
  %6 = load float, ptr %arrayidx.i27, align 4
  %arrayidx.i29 = getelementptr inbounds i8, ptr %mat, i64 40
  %7 = load float, ptr %arrayidx.i29, align 4
  %call.i30 = tail call noundef float @atan2f(float noundef %6, float noundef %7) #22
  %fneg22 = fneg float %call.i30
  %arrayidx24 = getelementptr inbounds i8, ptr %xyz, i64 4
  store float %fneg22, ptr %arrayidx24, align 4
  br label %return

if.else27:                                        ; preds = %entry
  store float 0.000000e+00, ptr %xyz, align 4
  %arrayidx.i32 = getelementptr inbounds i8, ptr %mat, i64 24
  %8 = load float, ptr %arrayidx.i32, align 4
  %arrayidx.i34 = getelementptr inbounds i8, ptr %mat, i64 40
  %9 = load float, ptr %arrayidx.i34, align 4
  %call.i35 = tail call noundef float @atan2f(float noundef %8, float noundef %9) #22
  %arrayidx34 = getelementptr inbounds i8, ptr %xyz, i64 4
  store float %call.i35, ptr %arrayidx34, align 4
  br label %return

return:                                           ; preds = %if.else27, %if.else, %if.then2
  %.sink = phi float [ 0x3FF921FB60000000, %if.else27 ], [ 0xBFF921FB60000000, %if.else ], [ %call.i25, %if.then2 ]
  %retval.0 = phi i1 [ false, %if.else27 ], [ false, %if.else ], [ true, %if.then2 ]
  %arrayidx36 = getelementptr inbounds i8, ptr %xyz, i64 8
  store float %.sink, ptr %arrayidx36, align 4
  ret i1 %retval.0
}